target datalayout = "e-m:e-p270:32:32-p271:32:32-p272:64:64-i64:64-i128:128-f80:128-n8:16:32:64-S128"
target triple = "x86_64-unknown-linux-gnu"

%"struct.OpenColorIO_v2_4dev::PackedImageDesc::Impl" = type <{ ptr, ptr, ptr, ptr, ptr, i32, i32, i64, i64, i64, i64, i64, i64, i8, i8, [6 x i8] }>
%"class.OpenColorIO_v2_4dev::PackedImageDesc" = type { %"class.OpenColorIO_v2_4dev::ImageDesc", ptr }
%"class.OpenColorIO_v2_4dev::ImageDesc" = type { ptr }

@_ZTIN19OpenColorIO_v2_4dev9ExceptionE = external constant ptr
@.str.19 = private unnamed_addr constant [51 x i8] c"PackedImageDesc Error: Invalid number of channels.\00", align 1

; Function Attrs: mustprogress nounwind uwtable
define void @_ZN19OpenColorIO_v2_4dev9ImageDescD2Ev(ptr noundef nonnull align 8 dereferenceable(8) %this) unnamed_addr #6 align 2 {
entry:
  %this.addr = alloca ptr, align 8
  store ptr %this, ptr %this.addr, align 8
  ret void
}

; Function Attrs: mustprogress nounwind uwtable
define linkonce_odr hidden noundef zeroext i1 @_ZNK19OpenColorIO_v2_4dev15PackedImageDesc4Impl7isFloatEv(ptr noundef nonnull align 8 dereferenceable(98) %this) #6 comdat align 2 {
entry:
  %this.addr = alloca ptr, align 8
  store ptr %this, ptr %this.addr, align 8
  %this1 = load ptr, ptr %this.addr, align 8
  %m_chanStrideBytes = getelementptr inbounds %"struct.OpenColorIO_v2_4dev::PackedImageDesc::Impl", ptr %this1, i32 0, i32 10
  %0 = load i64, ptr %m_chanStrideBytes, align 8
  %cmp = icmp eq i64 %0, 4
  br i1 %cmp, label %land.rhs, label %land.end

land.rhs:                                         ; preds = %entry
  %m_bitDepth = getelementptr inbounds %"struct.OpenColorIO_v2_4dev::PackedImageDesc::Impl", ptr %this1, i32 0, i32 6
  %1 = load i32, ptr %m_bitDepth, align 4
  %cmp2 = icmp eq i32 %1, 8
  br label %land.end

land.end:                                         ; preds = %land.rhs, %entry
  %2 = phi i1 [ false, %entry ], [ %cmp2, %land.rhs ]
  ret i1 %2
}

; Function Attrs: mustprogress nounwind uwtable
define linkonce_odr hidden noundef ptr @_ZN19OpenColorIO_v2_4dev15PackedImageDesc7getImplEv(ptr noundef nonnull align 8 dereferenceable(16) %this) #6 comdat align 2 {
entry:
  %this.addr = alloca ptr, align 8
  store ptr %this, ptr %this.addr, align 8
  %this1 = load ptr, ptr %this.addr, align 8
  %m_impl = getelementptr inbounds %"class.OpenColorIO_v2_4dev::PackedImageDesc", ptr %this1, i32 0, i32 1
  %0 = load ptr, ptr %m_impl, align 8
  ret ptr %0
}

; Function Attrs: mustprogress nounwind uwtable
define linkonce_odr hidden void @_ZN19OpenColorIO_v2_4dev15PackedImageDesc4ImplC2Ev(ptr noundef nonnull align 8 dereferenceable(98) %this) unnamed_addr #6 comdat align 2 {
entry:
  %this.addr = alloca ptr, align 8
  store ptr %this, ptr %this.addr, align 8
  %this1 = load ptr, ptr %this.addr, align 8
  %m_data = getelementptr inbounds %"struct.OpenColorIO_v2_4dev::PackedImageDesc::Impl", ptr %this1, i32 0, i32 0
  store ptr null, ptr %m_data, align 8
  %m_rData = getelementptr inbounds %"struct.OpenColorIO_v2_4dev::PackedImageDesc::Impl", ptr %this1, i32 0, i32 1
  store ptr null, ptr %m_rData, align 8
  %m_gData = getelementptr inbounds %"struct.OpenColorIO_v2_4dev::PackedImageDesc::Impl", ptr %this1, i32 0, i32 2
  store ptr null, ptr %m_gData, align 8
  %m_bData = getelementptr inbounds %"struct.OpenColorIO_v2_4dev::PackedImageDesc::Impl", ptr %this1, i32 0, i32 3
  store ptr null, ptr %m_bData, align 8
  %m_aData = getelementptr inbounds %"struct.OpenColorIO_v2_4dev::PackedImageDesc::Impl", ptr %this1, i32 0, i32 4
  store ptr null, ptr %m_aData, align 8
  %m_chanOrder = getelementptr inbounds %"struct.OpenColorIO_v2_4dev::PackedImageDesc::Impl", ptr %this1, i32 0, i32 5
  store i32 0, ptr %m_chanOrder, align 8
  %m_bitDepth = getelementptr inbounds %"struct.OpenColorIO_v2_4dev::PackedImageDesc::Impl", ptr %this1, i32 0, i32 6
  store i32 0, ptr %m_bitDepth, align 4
  %m_width = getelementptr inbounds %"struct.OpenColorIO_v2_4dev::PackedImageDesc::Impl", ptr %this1, i32 0, i32 7
  store i64 0, ptr %m_width, align 8
  %m_height = getelementptr inbounds %"struct.OpenColorIO_v2_4dev::PackedImageDesc::Impl", ptr %this1, i32 0, i32 8
  store i64 0, ptr %m_height, align 8
  %m_numChannels = getelementptr inbounds %"struct.OpenColorIO_v2_4dev::PackedImageDesc::Impl", ptr %this1, i32 0, i32 9
  store i64 0, ptr %m_numChannels, align 8
  %m_chanStrideBytes = getelementptr inbounds %"struct.OpenColorIO_v2_4dev::PackedImageDesc::Impl", ptr %this1, i32 0, i32 10
  store i64 0, ptr %m_chanStrideBytes, align 8
  %m_xStrideBytes = getelementptr inbounds %"struct.OpenColorIO_v2_4dev::PackedImageDesc::Impl", ptr %this1, i32 0, i32 11
  store i64 0, ptr %m_xStrideBytes, align 8
  %m_yStrideBytes = getelementptr inbounds %"struct.OpenColorIO_v2_4dev::PackedImageDesc::Impl", ptr %this1, i32 0, i32 12
  store i64 0, ptr %m_yStrideBytes, align 8
  %m_isRGBAPacked = getelementptr inbounds %"struct.OpenColorIO_v2_4dev::PackedImageDesc::Impl", ptr %this1, i32 0, i32 13
  store i8 0, ptr %m_isRGBAPacked, align 8
  %m_isFloat = getelementptr inbounds %"struct.OpenColorIO_v2_4dev::PackedImageDesc::Impl", ptr %this1, i32 0, i32 14
  store i8 0, ptr %m_isFloat, align 1
  ret void
}

; Function Attrs: mustprogress nounwind uwtable
define void @_ZN19OpenColorIO_v2_4dev9ImageDescC2Ev(ptr noundef nonnull align 8 dereferenceable(8) %this) unnamed_addr #6 align 2 {
entry:
  %this.addr = alloca ptr, align 8
  store ptr %this, ptr %this.addr, align 8
  %this1 = load ptr, ptr %this.addr, align 8
  store ptr getelementptr inbounds ({ [15 x ptr] }, ptr @_ZTVN19OpenColorIO_v2_4dev9ImageDescE, i32 0, i32 0, i32 2), ptr %this1, align 8
  ret void
}

; Function Attrs: mustprogress uwtable
define void @_ZN19OpenColorIO_v2_4dev15PackedImageDescC2EPvlllNS_8BitDepthElll(ptr noundef nonnull align 8 dereferenceable(16) %this, ptr noundef %data, i64 noundef %width, i64 noundef %height, i64 noundef %numChannels, i32 noundef %bitDepth, i64 noundef %chanStrideBytes, i64 noundef %xStrideBytes, i64 noundef %yStrideBytes) unnamed_addr #4 align 2 personality ptr @__gxx_personality_v0 {
entry:
  %this.addr = alloca ptr, align 8
  %data.addr = alloca ptr, align 8
  %width.addr = alloca i64, align 8
  %height.addr = alloca i64, align 8
  %numChannels.addr = alloca i64, align 8
  %bitDepth.addr = alloca i32, align 4
  %chanStrideBytes.addr = alloca i64, align 8
  %xStrideBytes.addr = alloca i64, align 8
  %yStrideBytes.addr = alloca i64, align 8
  %exn.slot = alloca ptr, align 8
  %ehselector.slot = alloca i32, align 4
  %oneChannelInBytes = alloca i32, align 4
  store ptr %this, ptr %this.addr, align 8
  store ptr %data, ptr %data.addr, align 8
  store i64 %width, ptr %width.addr, align 8
  store i64 %height, ptr %height.addr, align 8
  store i64 %numChannels, ptr %numChannels.addr, align 8
  store i32 %bitDepth, ptr %bitDepth.addr, align 4
  store i64 %chanStrideBytes, ptr %chanStrideBytes.addr, align 8
  store i64 %xStrideBytes, ptr %xStrideBytes.addr, align 8
  store i64 %yStrideBytes, ptr %yStrideBytes.addr, align 8
  %this1 = load ptr, ptr %this.addr, align 8
  call void @_ZN19OpenColorIO_v2_4dev9ImageDescC2Ev(ptr noundef nonnull align 8 dereferenceable(8) %this1)
  store ptr getelementptr inbounds ({ [15 x ptr] }, ptr @_ZTVN19OpenColorIO_v2_4dev15PackedImageDescE, i32 0, i32 0, i32 2), ptr %this1, align 8
  %m_impl = getelementptr inbounds %"class.OpenColorIO_v2_4dev::PackedImageDesc", ptr %this1, i32 0, i32 1
  %call = invoke noalias noundef nonnull ptr @_Znwm(i64 noundef 104) #16
          to label %invoke.cont unwind label %lpad

invoke.cont:                                      ; preds = %entry
  call void @_ZN19OpenColorIO_v2_4dev15PackedImageDesc4ImplC2Ev(ptr noundef nonnull align 8 dereferenceable(98) %call) #3
  store ptr %call, ptr %m_impl, align 8
  %0 = load ptr, ptr %data.addr, align 8
  %call3 = invoke noundef ptr @_ZN19OpenColorIO_v2_4dev15PackedImageDesc7getImplEv(ptr noundef nonnull align 8 dereferenceable(16) %this1)
          to label %invoke.cont2 unwind label %lpad

invoke.cont2:                                     ; preds = %invoke.cont
  %m_data = getelementptr inbounds %"struct.OpenColorIO_v2_4dev::PackedImageDesc::Impl", ptr %call3, i32 0, i32 0
  store ptr %0, ptr %m_data, align 8
  %1 = load i64, ptr %width.addr, align 8
  %call5 = invoke noundef ptr @_ZN19OpenColorIO_v2_4dev15PackedImageDesc7getImplEv(ptr noundef nonnull align 8 dereferenceable(16) %this1)
          to label %invoke.cont4 unwind label %lpad

invoke.cont4:                                     ; preds = %invoke.cont2
  %m_width = getelementptr inbounds %"struct.OpenColorIO_v2_4dev::PackedImageDesc::Impl", ptr %call5, i32 0, i32 7
  store i64 %1, ptr %m_width, align 8
  %2 = load i64, ptr %height.addr, align 8
  %call7 = invoke noundef ptr @_ZN19OpenColorIO_v2_4dev15PackedImageDesc7getImplEv(ptr noundef nonnull align 8 dereferenceable(16) %this1)
          to label %invoke.cont6 unwind label %lpad

invoke.cont6:                                     ; preds = %invoke.cont4
  %m_height = getelementptr inbounds %"struct.OpenColorIO_v2_4dev::PackedImageDesc::Impl", ptr %call7, i32 0, i32 8
  store i64 %2, ptr %m_height, align 8
  %3 = load i64, ptr %numChannels.addr, align 8
  %call9 = invoke noundef ptr @_ZN19OpenColorIO_v2_4dev15PackedImageDesc7getImplEv(ptr noundef nonnull align 8 dereferenceable(16) %this1)
          to label %invoke.cont8 unwind label %lpad

invoke.cont8:                                     ; preds = %invoke.cont6
  %m_numChannels = getelementptr inbounds %"struct.OpenColorIO_v2_4dev::PackedImageDesc::Impl", ptr %call9, i32 0, i32 9
  store i64 %3, ptr %m_numChannels, align 8
  %4 = load i32, ptr %bitDepth.addr, align 4
  %call11 = invoke noundef ptr @_ZN19OpenColorIO_v2_4dev15PackedImageDesc7getImplEv(ptr noundef nonnull align 8 dereferenceable(16) %this1)
          to label %invoke.cont10 unwind label %lpad

invoke.cont10:                                    ; preds = %invoke.cont8
  %m_bitDepth = getelementptr inbounds %"struct.OpenColorIO_v2_4dev::PackedImageDesc::Impl", ptr %call11, i32 0, i32 6
  store i32 %4, ptr %m_bitDepth, align 4
  %5 = load i64, ptr %numChannels.addr, align 8
  %cmp = icmp eq i64 %5, 4
  br i1 %cmp, label %if.then, label %if.else

if.then:                                          ; preds = %invoke.cont10
  %call13 = invoke noundef ptr @_ZN19OpenColorIO_v2_4dev15PackedImageDesc7getImplEv(ptr noundef nonnull align 8 dereferenceable(16) %this1)
          to label %invoke.cont12 unwind label %lpad

invoke.cont12:                                    ; preds = %if.then
  %m_chanOrder = getelementptr inbounds %"struct.OpenColorIO_v2_4dev::PackedImageDesc::Impl", ptr %call13, i32 0, i32 5
  store i32 0, ptr %m_chanOrder, align 8
  br label %if.end22

lpad:                                             ; preds = %invoke.cont68, %invoke.cont65, %invoke.cont63, %invoke.cont61, %invoke.cont59, %invoke.cont57, %invoke.cont55, %invoke.cont54, %invoke.cont52, %invoke.cont50, %cond.end48, %cond.true42, %cond.end37, %invoke.cont30, %cond.true29, %cond.end, %if.end22, %invoke.cont21, %if.then15, %if.then, %invoke.cont8, %invoke.cont6, %invoke.cont4, %invoke.cont2, %invoke.cont, %entry
  %6 = landingpad { ptr, i32 }
          cleanup
  %7 = extractvalue { ptr, i32 } %6, 0
  store ptr %7, ptr %exn.slot, align 8
  %8 = extractvalue { ptr, i32 } %6, 1
  store i32 %8, ptr %ehselector.slot, align 4
  br label %ehcleanup

if.else:                                          ; preds = %invoke.cont10
  %9 = load i64, ptr %numChannels.addr, align 8
  %cmp14 = icmp eq i64 %9, 3
  br i1 %cmp14, label %if.then15, label %if.else19

if.then15:                                        ; preds = %if.else
  %call17 = invoke noundef ptr @_ZN19OpenColorIO_v2_4dev15PackedImageDesc7getImplEv(ptr noundef nonnull align 8 dereferenceable(16) %this1)
          to label %invoke.cont16 unwind label %lpad

invoke.cont16:                                    ; preds = %if.then15
  %m_chanOrder18 = getelementptr inbounds %"struct.OpenColorIO_v2_4dev::PackedImageDesc::Impl", ptr %call17, i32 0, i32 5
  store i32 3, ptr %m_chanOrder18, align 8
  br label %if.end

if.else19:                                        ; preds = %if.else
  %exception = call ptr @__cxa_allocate_exception(i64 16) #3
  invoke void @_ZN19OpenColorIO_v2_4dev9ExceptionC1EPKc(ptr noundef nonnull align 8 dereferenceable(16) %exception, ptr noundef @.str.19)
          to label %invoke.cont21 unwind label %lpad20

invoke.cont21:                                    ; preds = %if.else19
  invoke void @__cxa_throw(ptr %exception, ptr @_ZTIN19OpenColorIO_v2_4dev9ExceptionE, ptr @_ZN19OpenColorIO_v2_4dev9ExceptionD1Ev) #15
          to label %unreachable unwind label %lpad

lpad20:                                           ; preds = %if.else19
  %10 = landingpad { ptr, i32 }
          cleanup
  %11 = extractvalue { ptr, i32 } %10, 0
  store ptr %11, ptr %exn.slot, align 8
  %12 = extractvalue { ptr, i32 } %10, 1
  store i32 %12, ptr %ehselector.slot, align 4
  call void @__cxa_free_exception(ptr %exception) #3
  br label %ehcleanup

if.end:                                           ; preds = %invoke.cont16
  br label %if.end22

if.end22:                                         ; preds = %if.end, %invoke.cont12
  %13 = load i32, ptr %bitDepth.addr, align 4
  %call24 = invoke noundef i32 @_ZN19OpenColorIO_v2_4dev21GetChannelSizeInBytesENS_8BitDepthE(i32 noundef %13)
          to label %invoke.cont23 unwind label %lpad

invoke.cont23:                                    ; preds = %if.end22
  store i32 %call24, ptr %oneChannelInBytes, align 4
  %14 = load i64, ptr %chanStrideBytes.addr, align 8
  %cmp25 = icmp eq i64 %14, -9223372036854775808
  br i1 %cmp25, label %cond.true, label %cond.false

cond.true:                                        ; preds = %invoke.cont23
  %15 = load i32, ptr %oneChannelInBytes, align 4
  %conv = zext i32 %15 to i64
  br label %cond.end

cond.false:                                       ; preds = %invoke.cont23
  %16 = load i64, ptr %chanStrideBytes.addr, align 8
  br label %cond.end

cond.end:                                         ; preds = %cond.false, %cond.true
  %cond = phi i64 [ %conv, %cond.true ], [ %16, %cond.false ]
  %call27 = invoke noundef ptr @_ZN19OpenColorIO_v2_4dev15PackedImageDesc7getImplEv(ptr noundef nonnull align 8 dereferenceable(16) %this1)
          to label %invoke.cont26 unwind label %lpad

invoke.cont26:                                    ; preds = %cond.end
  %m_chanStrideBytes = getelementptr inbounds %"struct.OpenColorIO_v2_4dev::PackedImageDesc::Impl", ptr %call27, i32 0, i32 10
  store i64 %cond, ptr %m_chanStrideBytes, align 8
  %17 = load i64, ptr %xStrideBytes.addr, align 8
  %cmp28 = icmp eq i64 %17, -9223372036854775808
  br i1 %cmp28, label %cond.true29, label %cond.false36

cond.true29:                                      ; preds = %invoke.cont26
  %call31 = invoke noundef ptr @_ZN19OpenColorIO_v2_4dev15PackedImageDesc7getImplEv(ptr noundef nonnull align 8 dereferenceable(16) %this1)
          to label %invoke.cont30 unwind label %lpad

invoke.cont30:                                    ; preds = %cond.true29
  %m_chanStrideBytes32 = getelementptr inbounds %"struct.OpenColorIO_v2_4dev::PackedImageDesc::Impl", ptr %call31, i32 0, i32 10
  %18 = load i64, ptr %m_chanStrideBytes32, align 8
  %call34 = invoke noundef ptr @_ZN19OpenColorIO_v2_4dev15PackedImageDesc7getImplEv(ptr noundef nonnull align 8 dereferenceable(16) %this1)
          to label %invoke.cont33 unwind label %lpad

invoke.cont33:                                    ; preds = %invoke.cont30
  %m_numChannels35 = getelementptr inbounds %"struct.OpenColorIO_v2_4dev::PackedImageDesc::Impl", ptr %call34, i32 0, i32 9
  %19 = load i64, ptr %m_numChannels35, align 8
  %mul = mul nsw i64 %18, %19
  br label %cond.end37

cond.false36:                                     ; preds = %invoke.cont26
  %20 = load i64, ptr %xStrideBytes.addr, align 8
  br label %cond.end37

cond.end37:                                       ; preds = %cond.false36, %invoke.cont33
  %cond38 = phi i64 [ %mul, %invoke.cont33 ], [ %20, %cond.false36 ]
  %call40 = invoke noundef ptr @_ZN19OpenColorIO_v2_4dev15PackedImageDesc7getImplEv(ptr noundef nonnull align 8 dereferenceable(16) %this1)
          to label %invoke.cont39 unwind label %lpad

invoke.cont39:                                    ; preds = %cond.end37
  %m_xStrideBytes = getelementptr inbounds %"struct.OpenColorIO_v2_4dev::PackedImageDesc::Impl", ptr %call40, i32 0, i32 11
  store i64 %cond38, ptr %m_xStrideBytes, align 8
  %21 = load i64, ptr %yStrideBytes.addr, align 8
  %cmp41 = icmp eq i64 %21, -9223372036854775808
  br i1 %cmp41, label %cond.true42, label %cond.false47

cond.true42:                                      ; preds = %invoke.cont39
  %call44 = invoke noundef ptr @_ZN19OpenColorIO_v2_4dev15PackedImageDesc7getImplEv(ptr noundef nonnull align 8 dereferenceable(16) %this1)
          to label %invoke.cont43 unwind label %lpad

invoke.cont43:                                    ; preds = %cond.true42
  %m_xStrideBytes45 = getelementptr inbounds %"struct.OpenColorIO_v2_4dev::PackedImageDesc::Impl", ptr %call44, i32 0, i32 11
  %22 = load i64, ptr %m_xStrideBytes45, align 8
  %23 = load i64, ptr %width.addr, align 8
  %mul46 = mul nsw i64 %22, %23
  br label %cond.end48

cond.false47:                                     ; preds = %invoke.cont39
  %24 = load i64, ptr %yStrideBytes.addr, align 8
  br label %cond.end48

cond.end48:                                       ; preds = %cond.false47, %invoke.cont43
  %cond49 = phi i64 [ %mul46, %invoke.cont43 ], [ %24, %cond.false47 ]
  %call51 = invoke noundef ptr @_ZN19OpenColorIO_v2_4dev15PackedImageDesc7getImplEv(ptr noundef nonnull align 8 dereferenceable(16) %this1)
          to label %invoke.cont50 unwind label %lpad

invoke.cont50:                                    ; preds = %cond.end48
  %m_yStrideBytes = getelementptr inbounds %"struct.OpenColorIO_v2_4dev::PackedImageDesc::Impl", ptr %call51, i32 0, i32 12
  store i64 %cond49, ptr %m_yStrideBytes, align 8
  %call53 = invoke noundef ptr @_ZN19OpenColorIO_v2_4dev15PackedImageDesc7getImplEv(ptr noundef nonnull align 8 dereferenceable(16) %this1)
          to label %invoke.cont52 unwind label %lpad

invoke.cont52:                                    ; preds = %invoke.cont50
  invoke void @_ZN19OpenColorIO_v2_4dev15PackedImageDesc4Impl10initValuesEv(ptr noundef nonnull align 8 dereferenceable(98) %call53)
          to label %invoke.cont54 unwind label %lpad

invoke.cont54:                                    ; preds = %invoke.cont52
  %call56 = invoke noundef ptr @_ZN19OpenColorIO_v2_4dev15PackedImageDesc7getImplEv(ptr noundef nonnull align 8 dereferenceable(16) %this1)
          to label %invoke.cont55 unwind label %lpad

invoke.cont55:                                    ; preds = %invoke.cont54
  %call58 = invoke noundef zeroext i1 @_ZNK19OpenColorIO_v2_4dev15PackedImageDesc4Impl12isRGBAPackedEv(ptr noundef nonnull align 8 dereferenceable(98) %call56)
          to label %invoke.cont57 unwind label %lpad

invoke.cont57:                                    ; preds = %invoke.cont55
  %call60 = invoke noundef ptr @_ZN19OpenColorIO_v2_4dev15PackedImageDesc7getImplEv(ptr noundef nonnull align 8 dereferenceable(16) %this1)
          to label %invoke.cont59 unwind label %lpad

invoke.cont59:                                    ; preds = %invoke.cont57
  %m_isRGBAPacked = getelementptr inbounds %"struct.OpenColorIO_v2_4dev::PackedImageDesc::Impl", ptr %call60, i32 0, i32 13
  %frombool = zext i1 %call58 to i8
  store i8 %frombool, ptr %m_isRGBAPacked, align 8
  %call62 = invoke noundef ptr @_ZN19OpenColorIO_v2_4dev15PackedImageDesc7getImplEv(ptr noundef nonnull align 8 dereferenceable(16) %this1)
          to label %invoke.cont61 unwind label %lpad

invoke.cont61:                                    ; preds = %invoke.cont59
  %call64 = invoke noundef zeroext i1 @_ZNK19OpenColorIO_v2_4dev15PackedImageDesc4Impl7isFloatEv(ptr noundef nonnull align 8 dereferenceable(98) %call62)
          to label %invoke.cont63 unwind label %lpad

invoke.cont63:                                    ; preds = %invoke.cont61
  %call66 = invoke noundef ptr @_ZN19OpenColorIO_v2_4dev15PackedImageDesc7getImplEv(ptr noundef nonnull align 8 dereferenceable(16) %this1)
          to label %invoke.cont65 unwind label %lpad

invoke.cont65:                                    ; preds = %invoke.cont63
  %m_isFloat = getelementptr inbounds %"struct.OpenColorIO_v2_4dev::PackedImageDesc::Impl", ptr %call66, i32 0, i32 14
  %frombool67 = zext i1 %call64 to i8
  store i8 %frombool67, ptr %m_isFloat, align 1
  %call69 = invoke noundef ptr @_ZN19OpenColorIO_v2_4dev15PackedImageDesc7getImplEv(ptr noundef nonnull align 8 dereferenceable(16) %this1)
          to label %invoke.cont68 unwind label %lpad

invoke.cont68:                                    ; preds = %invoke.cont65
  invoke void @_ZNK19OpenColorIO_v2_4dev15PackedImageDesc4Impl8validateEv(ptr noundef nonnull align 8 dereferenceable(98) %call69)
          to label %invoke.cont70 unwind label %lpad

invoke.cont70:                                    ; preds = %invoke.cont68
  ret void

ehcleanup:                                        ; preds = %lpad20, %lpad
  call void @_ZN19OpenColorIO_v2_4dev9ImageDescD2Ev(ptr noundef nonnull align 8 dereferenceable(8) %this1) #3
  br label %eh.resume

eh.resume:                                        ; preds = %ehcleanup
  %exn = load ptr, ptr %exn.slot, align 8
  %sel = load i32, ptr %ehselector.slot, align 4
  %lpad.val = insertvalue { ptr, i32 } poison, ptr %exn, 0
  %lpad.val71 = insertvalue { ptr, i32 } %lpad.val, i32 %sel, 1
  resume { ptr, i32 } %lpad.val71

unreachable:                                      ; preds = %invoke.cont21
  unreachable
}