; Function Attrs: mustprogress uwtable
define void @_ZN19OpenColorIO_v2_4dev15PackedImageDescC2EPvlllNS_8BitDepthElll(ptr nocapture noundef nonnull align 8 dereferenceable(16) %this, ptr noundef %data, i64 noundef %width, i64 noundef %height, i64 noundef %numChannels, i32 noundef %bitDepth, i64 noundef %chanStrideBytes, i64 noundef %xStrideBytes, i64 noundef %yStrideBytes) unnamed_addr #3 align 2 personality ptr @__gxx_personality_v0 {
entry:
  store ptr getelementptr inbounds ({ [15 x ptr] }, ptr @_ZTVN19OpenColorIO_v2_4dev15PackedImageDescE, i64 0, i32 0, i64 2), ptr %this, align 8
  %call = tail call noalias noundef nonnull dereferenceable(104) ptr @_Znwm(i64 noundef 104) #21
  %m_impl = getelementptr inbounds i8, ptr %this, i64 8
  %0 = getelementptr inbounds i8, ptr %call, i64 8
  tail call void @llvm.memset.p0.i64(ptr noundef nonnull align 8 dereferenceable(98) %0, i8 0, i64 90, i1 false)
  store ptr %call, ptr %m_impl, align 8
  store ptr %data, ptr %call, align 8
  %m_width = getelementptr inbounds i8, ptr %call, i64 48
  store i64 %width, ptr %m_width, align 8
  %m_height = getelementptr inbounds i8, ptr %call, i64 56
  store i64 %height, ptr %m_height, align 8
  %m_numChannels = getelementptr inbounds i8, ptr %call, i64 64
  store i64 %numChannels, ptr %m_numChannels, align 8
  %m_bitDepth = getelementptr inbounds i8, ptr %call, i64 44
  store i32 %bitDepth, ptr %m_bitDepth, align 4
  switch i64 %numChannels, label %if.else19 [
    i64 4, label %if.end22
    i64 3, label %if.then15
  ]

if.then15:                                        ; preds = %entry
  br label %if.end22

if.else19:                                        ; preds = %entry
  %exception = tail call ptr @__cxa_allocate_exception(i64 16) #18
  invoke void @_ZN19OpenColorIO_v2_4dev9ExceptionC1EPKc(ptr noundef nonnull align 8 dereferenceable(16) %exception, ptr noundef nonnull @.str.19)
          to label %invoke.cont21 unwind label %lpad20

invoke.cont21:                                    ; preds = %if.else19
  tail call void @__cxa_throw(ptr nonnull %exception, ptr nonnull @_ZTIN19OpenColorIO_v2_4dev9ExceptionE, ptr nonnull @_ZN19OpenColorIO_v2_4dev9ExceptionD1Ev) #20
  unreachable

lpad20:                                           ; preds = %if.else19
  %1 = landingpad { ptr, i32 }
          cleanup
  tail call void @__cxa_free_exception(ptr %exception) #18
  resume { ptr, i32 } %1

if.end22:                                         ; preds = %entry, %if.then15
  %.sink = phi i32 [ 3, %if.then15 ], [ 0, %entry ]
  %m_chanOrder18 = getelementptr inbounds i8, ptr %call, i64 40
  store i32 %.sink, ptr %m_chanOrder18, align 8
  %call24 = tail call noundef i32 @_ZN19OpenColorIO_v2_4dev21GetChannelSizeInBytesENS_8BitDepthE(i32 noundef %bitDepth)
  %cmp25 = icmp eq i64 %chanStrideBytes, -9223372036854775808
  %conv = zext i32 %call24 to i64
  %cond = select i1 %cmp25, i64 %conv, i64 %chanStrideBytes
  %2 = load ptr, ptr %m_impl, align 8
  %m_chanStrideBytes = getelementptr inbounds i8, ptr %2, i64 72
  store i64 %cond, ptr %m_chanStrideBytes, align 8
  %cmp28 = icmp eq i64 %xStrideBytes, -9223372036854775808
  %.pre = load ptr, ptr %m_impl, align 8
  br i1 %cmp28, label %cond.true29, label %cond.end37

cond.true29:                                      ; preds = %if.end22
  %m_chanStrideBytes32 = getelementptr inbounds i8, ptr %.pre, i64 72
  %3 = load i64, ptr %m_chanStrideBytes32, align 8
  %m_numChannels35 = getelementptr inbounds i8, ptr %.pre, i64 64
  %4 = load i64, ptr %m_numChannels35, align 8
  %mul = mul nsw i64 %4, %3
  br label %cond.end37

cond.end37:                                       ; preds = %if.end22, %cond.true29
  %cond38 = phi i64 [ %mul, %cond.true29 ], [ %xStrideBytes, %if.end22 ]
  %m_xStrideBytes = getelementptr inbounds i8, ptr %.pre, i64 80
  store i64 %cond38, ptr %m_xStrideBytes, align 8
  %cmp41 = icmp eq i64 %yStrideBytes, -9223372036854775808
  %.pre27 = load ptr, ptr %m_impl, align 8
  br i1 %cmp41, label %cond.true42, label %cond.end48

cond.true42:                                      ; preds = %cond.end37
  %m_xStrideBytes45 = getelementptr inbounds i8, ptr %.pre27, i64 80
  %5 = load i64, ptr %m_xStrideBytes45, align 8
  %mul46 = mul nsw i64 %5, %width
  br label %cond.end48

cond.end48:                                       ; preds = %cond.end37, %cond.true42
  %cond49 = phi i64 [ %mul46, %cond.true42 ], [ %yStrideBytes, %cond.end37 ]
  %m_yStrideBytes = getelementptr inbounds i8, ptr %.pre27, i64 88
  store i64 %cond49, ptr %m_yStrideBytes, align 8
  %6 = load ptr, ptr %m_impl, align 8
  tail call void @_ZN19OpenColorIO_v2_4dev15PackedImageDesc4Impl10initValuesEv(ptr noundef nonnull align 8 dereferenceable(98) %6)
  %7 = load ptr, ptr %m_impl, align 8
  %call58 = tail call noundef zeroext i1 @_ZNK19OpenColorIO_v2_4dev15PackedImageDesc4Impl12isRGBAPackedEv(ptr noundef nonnull align 8 dereferenceable(98) %7)
  %8 = load ptr, ptr %m_impl, align 8
  %m_isRGBAPacked = getelementptr inbounds i8, ptr %8, i64 96
  %frombool = zext i1 %call58 to i8
  store i8 %frombool, ptr %m_isRGBAPacked, align 8
  %9 = load ptr, ptr %m_impl, align 8
  %m_chanStrideBytes.i = getelementptr inbounds i8, ptr %9, i64 72
  %10 = load i64, ptr %m_chanStrideBytes.i, align 8
  %cmp.i = icmp eq i64 %10, 4
  %m_bitDepth.i = getelementptr inbounds i8, ptr %9, i64 44
  %11 = load i32, ptr %m_bitDepth.i, align 4
  %cmp2.i = icmp eq i32 %11, 8
  %12 = select i1 %cmp.i, i1 %cmp2.i, i1 false
  %m_isFloat = getelementptr inbounds i8, ptr %9, i64 97
  %frombool67 = zext i1 %12 to i8
  store i8 %frombool67, ptr %m_isFloat, align 1
  %13 = load ptr, ptr %m_impl, align 8
  tail call void @_ZNK19OpenColorIO_v2_4dev15PackedImageDesc4Impl8validateEv(ptr noundef nonnull align 8 dereferenceable(98) %13)
  ret void
}